; Function Attrs: nofree norecurse nosync nounwind memory(readwrite, inaccessiblemem: none) uwtable
define range(i64 -30, 1) i64 @ZBUFFv07_decompressInitDictionary(ptr noundef captures(none) initializes((32, 36), (56, 64), (80, 96), (128, 136)) %0, ptr noundef %1, i64 noundef %2) local_unnamed_addr #15 {
  %4 = getelementptr inbounds nuw i8, ptr %0, i64 32
  store i32 1, ptr %4, align 8, !tbaa !111
  %5 = getelementptr inbounds nuw i8, ptr %0, i64 80
  %6 = getelementptr inbounds nuw i8, ptr %0, i64 56
  store i64 0, ptr %6, align 8, !tbaa !116
  %7 = getelementptr inbounds nuw i8, ptr %0, i64 128
  store i64 0, ptr %7, align 8, !tbaa !117
  tail call void @llvm.memset.p0.i64(ptr noundef nonnull align 8 dereferenceable(16) %5, i8 0, i64 16, i1 false)
  %8 = load ptr, ptr %0, align 8, !tbaa !109
  %9 = tail call i64 @ZSTDv07_decompressBegin_usingDict(ptr noundef %8, ptr noundef %1, i64 noundef %2)
  ret i64 %9
}